; Function Attrs: mustprogress nounwind uwtable
define hidden void @_ZN16G1ConcurrentMark26post_concurrent_mark_startEv(ptr noundef nonnull align 8 dereferenceable(1849) %0) local_unnamed_addr #0 align 2 {
  %2 = getelementptr inbounds i8, ptr %0, i64 8
  %3 = load ptr, ptr %2, align 8
  %4 = getelementptr inbounds i8, ptr %3, i64 1392
  %5 = load ptr, ptr %4, align 8
  tail call void @_ZN18ReferenceProcessor16enable_discoveryEv(ptr noundef nonnull align 8 dereferenceable(88) %5) #22
  %6 = load ptr, ptr @_ZN18ReferenceProcessor24_default_soft_ref_policyE, align 8
  %7 = getelementptr inbounds i8, ptr %5, i64 32
  store ptr %6, ptr %7, align 8
  %8 = load ptr, ptr %6, align 8
  %9 = getelementptr inbounds i8, ptr %8, i64 8
  %10 = load ptr, ptr %9, align 8
  tail call void %10(ptr noundef nonnull align 8 dereferenceable(8) %6) #22
  %11 = load ptr, ptr @_ZN10BarrierSet12_barrier_setE, align 8
  %12 = getelementptr inbounds i8, ptr %11, i64 1264
  tail call void @_ZN16SATBMarkQueueSet22set_active_all_threadsEbb(ptr noundef nonnull align 8 dereferenceable(393) %12, i1 noundef zeroext true, i1 noundef zeroext false) #22
  %13 = getelementptr inbounds i8, ptr %0, i64 112
  %14 = load volatile i64, ptr %13, align 8
  %15 = icmp ne i64 %14, 0
  %16 = getelementptr inbounds i8, ptr %0, i64 128
  %17 = zext i1 %15 to i8
  store volatile i8 %17, ptr %16, align 8
  %18 = getelementptr inbounds i8, ptr %0, i64 120
  store volatile i64 0, ptr %18, align 8
  %19 = getelementptr inbounds i8, ptr %0, i64 129
  store volatile i8 0, ptr %19, align 1
  ret void
}